; Function Attrs: mustprogress uwtable
define internal noundef zeroext i1 @"_ZNSt17_Function_handlerIFbvEZN6google8protobuf2io7Printer9ValueImplILb1EE18ToStringOrCallbackIZNS2_8compiler3cpp13FileGenerator36GenerateReflectionInitializationCodeEPS4_E3$_6vEESt7variantIJNSt7__cxx1112basic_stringIcSt11char_traitsIcESaIcEEESt8functionIS0_EEEOT_NS6_5Rank2EEUlvE_E10_M_managerERSt9_Any_dataRKSS_St18_Manager_operation"(ptr nocapture noundef nonnull align 8 dereferenceable(16) %__dest, ptr nocapture noundef nonnull readonly align 8 dereferenceable(16) %__source, i32 noundef %__op) #3 align 2 {
entry:
  switch i32 %__op, label %sw.epilog [
    i32 0, label %sw.bb
    i32 1, label %sw.bb1
    i32 3, label %sw.bb6.i
    i32 2, label %sw.bb4.i
  ]

sw.bb:                                            ; preds = %entry
  store ptr @"_ZTIZN6google8protobuf2io7Printer9ValueImplILb1EE18ToStringOrCallbackIZNS0_8compiler3cpp13FileGenerator36GenerateReflectionInitializationCodeEPS2_E3$_6vEESt7variantIJNSt7__cxx1112basic_stringIcSt11char_traitsIcESaIcEEESt8functionIFbvEEEEOT_NS4_5Rank2EEUlvE_", ptr %__dest, align 8
  br label %sw.epilog

sw.bb1:                                           ; preds = %entry
  %__source.val = load ptr, ptr %__source, align 8
  store ptr %__source.val, ptr %__dest, align 8
  br label %sw.epilog

sw.bb4.i:                                         ; preds = %entry
  %__source.val5 = load ptr, ptr %__source, align 8
  %call.i.i.i = tail call noalias noundef nonnull dereferenceable(32) ptr @_Znwm(i64 noundef 32) #25
  tail call void @llvm.memcpy.p0.p0.i64(ptr noundef nonnull align 16 dereferenceable(32) %call.i.i.i, ptr noundef nonnull align 8 dereferenceable(32) %__source.val5, i64 32, i1 false)
  store ptr %call.i.i.i, ptr %__dest, align 8
  br label %sw.epilog

sw.bb6.i:                                         ; preds = %entry
  %__dest.val.i = load ptr, ptr %__dest, align 8
  %isnull.i.i = icmp eq ptr %__dest.val.i, null
  br i1 %isnull.i.i, label %sw.epilog, label %delete.notnull.i.i

delete.notnull.i.i:                               ; preds = %sw.bb6.i
  tail call void @_ZdlPv(ptr noundef nonnull %__dest.val.i) #26
  br label %sw.epilog

sw.epilog:                                        ; preds = %entry, %delete.notnull.i.i, %sw.bb6.i, %sw.bb4.i, %sw.bb1, %sw.bb
  ret i1 false
}